; Function Attrs: mustprogress nofree norecurse nosync nounwind memory(readwrite, inaccessiblemem: none) uwtable
define internal fastcc void @_ZN4ncnnL31padding_constant_pack8_int8_sseERKNS_3MatERS0_iiiil(ptr nocapture noundef nonnull readonly align 8 dereferenceable(72) %0, ptr nocapture noundef nonnull readonly align 8 dereferenceable(72) %1, i32 noundef %2, i32 noundef %3, i32 noundef %4, i32 noundef %5, i64 noundef %6) unnamed_addr #6 {
  %8 = load ptr, ptr %0, align 8
  %9 = load ptr, ptr %1, align 8
  %10 = icmp sgt i32 %2, 0
  br i1 %10, label %.preheader52.lr.ph, label %.preheader51

.preheader52.lr.ph:                               ; preds = %7
  %11 = getelementptr inbounds nuw i8, ptr %1, i64 44
  %12 = load i32, ptr %11, align 4
  %13 = icmp sgt i32 %12, 0
  br i1 %13, label %.preheader52, label %.preheader51

.preheader52:                                     ; preds = %.preheader52.lr.ph, %._crit_edge
  %14 = phi i32 [ %58, %._crit_edge ], [ %12, %.preheader52.lr.ph ]
  %.04356 = phi i32 [ %59, %._crit_edge ], [ 0, %.preheader52.lr.ph ]
  %.04455 = phi ptr [ %.1.lcssa, %._crit_edge ], [ %9, %.preheader52.lr.ph ]
  %15 = icmp sgt i32 %14, 0
  br i1 %15, label %.lr.ph, label %._crit_edge

.preheader51:                                     ; preds = %._crit_edge, %.preheader52.lr.ph, %7
  %.044.lcssa = phi ptr [ %9, %7 ], [ %9, %.preheader52.lr.ph ], [ %.1.lcssa, %._crit_edge ]
  %16 = getelementptr inbounds nuw i8, ptr %0, i64 48
  %17 = load i32, ptr %16, align 8
  %18 = icmp sgt i32 %17, 0
  br i1 %18, label %.preheader50.lr.ph, label %.preheader47

.preheader50.lr.ph:                               ; preds = %.preheader51
  %19 = icmp sgt i32 %4, 0
  %20 = getelementptr inbounds nuw i8, ptr %0, i64 44
  %21 = icmp sgt i32 %5, 0
  br i1 %19, label %.preheader50.us, label %.preheader50.lr.ph.split

.preheader50.us:                                  ; preds = %.preheader50.lr.ph, %._crit_edge71.us
  %.04175.us = phi i32 [ %22, %._crit_edge71.us ], [ 0, %.preheader50.lr.ph ]
  %.274.us = phi ptr [ %.5.lcssa.us, %._crit_edge71.us ], [ %.044.lcssa, %.preheader50.lr.ph ]
  %.04573.us = phi ptr [ %.146.lcssa.us, %._crit_edge71.us ], [ %8, %.preheader50.lr.ph ]
  br label %33

._crit_edge71.us:                                 ; preds = %.lr.ph70.us, %.preheader48.us
  %.5.lcssa.us = phi ptr [ %.4.lcssa.us, %.preheader48.us ], [ %25, %.lr.ph70.us ]
  %22 = add nuw nsw i32 %.04175.us, 1
  %23 = load i32, ptr %16, align 8
  %24 = icmp slt i32 %22, %23
  br i1 %24, label %.preheader50.us, label %.preheader47, !llvm.loop !122

.lr.ph70.us:                                      ; preds = %.preheader48.us, %.lr.ph70.us
  %.03869.us = phi i32 [ %26, %.lr.ph70.us ], [ 0, %.preheader48.us ]
  %.568.us = phi ptr [ %25, %.lr.ph70.us ], [ %.4.lcssa.us, %.preheader48.us ]
  %25 = getelementptr inbounds i8, ptr %.568.us, i64 8
  store i64 %6, ptr %.568.us, align 8
  %26 = add nuw nsw i32 %.03869.us, 1
  %exitcond134.not = icmp eq i32 %26, %5
  br i1 %exitcond134.not, label %._crit_edge71.us, label %.lr.ph70.us, !llvm.loop !123

.lr.ph65.us:                                      ; preds = %..preheader49_crit_edge.us, %.lr.ph65.us
  %.03964.us = phi i32 [ %30, %.lr.ph65.us ], [ 0, %..preheader49_crit_edge.us ]
  %.463.us = phi ptr [ %29, %.lr.ph65.us ], [ %34, %..preheader49_crit_edge.us ]
  %.14662.us = phi ptr [ %27, %.lr.ph65.us ], [ %.04573.us, %..preheader49_crit_edge.us ]
  %27 = getelementptr inbounds i8, ptr %.14662.us, i64 8
  %28 = load i64, ptr %.14662.us, align 8
  %29 = getelementptr inbounds i8, ptr %.463.us, i64 8
  store i64 %28, ptr %.463.us, align 8
  %30 = add nuw nsw i32 %.03964.us, 1
  %31 = load i32, ptr %20, align 4
  %32 = icmp slt i32 %30, %31
  br i1 %32, label %.lr.ph65.us, label %.preheader48.us, !llvm.loop !124

33:                                               ; preds = %.preheader50.us, %33
  %.04059.us = phi i32 [ 0, %.preheader50.us ], [ %35, %33 ]
  %.358.us = phi ptr [ %.274.us, %.preheader50.us ], [ %34, %33 ]
  %34 = getelementptr inbounds i8, ptr %.358.us, i64 8
  store i64 %6, ptr %.358.us, align 8
  %35 = add nuw nsw i32 %.04059.us, 1
  %exitcond133.not = icmp eq i32 %35, %4
  br i1 %exitcond133.not, label %..preheader49_crit_edge.us, label %33, !llvm.loop !125

.preheader48.us:                                  ; preds = %.lr.ph65.us, %..preheader49_crit_edge.us
  %.146.lcssa.us = phi ptr [ %.04573.us, %..preheader49_crit_edge.us ], [ %27, %.lr.ph65.us ]
  %.4.lcssa.us = phi ptr [ %34, %..preheader49_crit_edge.us ], [ %29, %.lr.ph65.us ]
  br i1 %21, label %.lr.ph70.us, label %._crit_edge71.us

..preheader49_crit_edge.us:                       ; preds = %33
  %36 = load i32, ptr %20, align 4
  %37 = icmp sgt i32 %36, 0
  br i1 %37, label %.lr.ph65.us, label %.preheader48.us

.preheader50.lr.ph.split:                         ; preds = %.preheader50.lr.ph
  br i1 %21, label %.preheader50.us78, label %.preheader50.lr.ph.split.split

.preheader50.us78:                                ; preds = %.preheader50.lr.ph.split, %._crit_edge71.us96
  %.04175.us79 = phi i32 [ %49, %._crit_edge71.us96 ], [ 0, %.preheader50.lr.ph.split ]
  %.274.us80 = phi ptr [ %41, %._crit_edge71.us96 ], [ %.044.lcssa, %.preheader50.lr.ph.split ]
  %.04573.us81 = phi ptr [ %.146.lcssa.us89, %._crit_edge71.us96 ], [ %8, %.preheader50.lr.ph.split ]
  %38 = load i32, ptr %20, align 4
  %39 = icmp sgt i32 %38, 0
  br i1 %39, label %.lr.ph65.us91, label %.preheader48.us88

40:                                               ; preds = %.preheader48.us88, %40
  %.03869.us83 = phi i32 [ 0, %.preheader48.us88 ], [ %42, %40 ]
  %.568.us84 = phi ptr [ %.4.lcssa.us90, %.preheader48.us88 ], [ %41, %40 ]
  %41 = getelementptr inbounds i8, ptr %.568.us84, i64 8
  store i64 %6, ptr %.568.us84, align 8
  %42 = add nuw nsw i32 %.03869.us83, 1
  %exitcond132.not = icmp eq i32 %42, %5
  br i1 %exitcond132.not, label %._crit_edge71.us96, label %40, !llvm.loop !123

.lr.ph65.us91:                                    ; preds = %.preheader50.us78, %.lr.ph65.us91
  %.03964.us85 = phi i32 [ %46, %.lr.ph65.us91 ], [ 0, %.preheader50.us78 ]
  %.463.us86 = phi ptr [ %45, %.lr.ph65.us91 ], [ %.274.us80, %.preheader50.us78 ]
  %.14662.us87 = phi ptr [ %43, %.lr.ph65.us91 ], [ %.04573.us81, %.preheader50.us78 ]
  %43 = getelementptr inbounds i8, ptr %.14662.us87, i64 8
  %44 = load i64, ptr %.14662.us87, align 8
  %45 = getelementptr inbounds i8, ptr %.463.us86, i64 8
  store i64 %44, ptr %.463.us86, align 8
  %46 = add nuw nsw i32 %.03964.us85, 1
  %47 = load i32, ptr %20, align 4
  %48 = icmp slt i32 %46, %47
  br i1 %48, label %.lr.ph65.us91, label %.preheader48.us88, !llvm.loop !124

.preheader48.us88:                                ; preds = %.lr.ph65.us91, %.preheader50.us78
  %.146.lcssa.us89 = phi ptr [ %.04573.us81, %.preheader50.us78 ], [ %43, %.lr.ph65.us91 ]
  %.4.lcssa.us90 = phi ptr [ %.274.us80, %.preheader50.us78 ], [ %45, %.lr.ph65.us91 ]
  br label %40

._crit_edge71.us96:                               ; preds = %40
  %49 = add nuw nsw i32 %.04175.us79, 1
  %50 = load i32, ptr %16, align 8
  %51 = icmp slt i32 %49, %50
  br i1 %51, label %.preheader50.us78, label %.preheader47, !llvm.loop !122

.preheader50.lr.ph.split.split:                   ; preds = %.preheader50.lr.ph.split
  %52 = load i32, ptr %20, align 4
  %53 = icmp sgt i32 %52, 0
  br i1 %53, label %.preheader50, label %.preheader47

.lr.ph:                                           ; preds = %.preheader52, %.lr.ph
  %.04254 = phi i32 [ %55, %.lr.ph ], [ 0, %.preheader52 ]
  %.153 = phi ptr [ %54, %.lr.ph ], [ %.04455, %.preheader52 ]
  %54 = getelementptr inbounds i8, ptr %.153, i64 8
  store i64 %6, ptr %.153, align 8
  %55 = add nuw nsw i32 %.04254, 1
  %56 = load i32, ptr %11, align 4
  %57 = icmp slt i32 %55, %56
  br i1 %57, label %.lr.ph, label %._crit_edge, !llvm.loop !126

._crit_edge:                                      ; preds = %.lr.ph, %.preheader52
  %58 = phi i32 [ %14, %.preheader52 ], [ %56, %.lr.ph ]
  %.1.lcssa = phi ptr [ %.04455, %.preheader52 ], [ %54, %.lr.ph ]
  %59 = add nuw nsw i32 %.04356, 1
  %exitcond.not = icmp eq i32 %59, %2
  br i1 %exitcond.not, label %.preheader51, label %.preheader52, !llvm.loop !127

.preheader50:                                     ; preds = %.preheader50.lr.ph.split.split, %.preheader48
  %60 = phi i32 [ %67, %.preheader48 ], [ %17, %.preheader50.lr.ph.split.split ]
  %61 = phi i32 [ %68, %.preheader48 ], [ %52, %.preheader50.lr.ph.split.split ]
  %.04175 = phi i32 [ %69, %.preheader48 ], [ 0, %.preheader50.lr.ph.split.split ]
  %.274 = phi ptr [ %.4.lcssa, %.preheader48 ], [ %.044.lcssa, %.preheader50.lr.ph.split.split ]
  %.04573 = phi ptr [ %.146.lcssa, %.preheader48 ], [ %8, %.preheader50.lr.ph.split.split ]
  %62 = icmp sgt i32 %61, 0
  br i1 %62, label %.lr.ph65, label %.preheader48

.preheader47:                                     ; preds = %.preheader48, %._crit_edge71.us96, %._crit_edge71.us, %.preheader50.lr.ph.split.split, %.preheader51
  %.2.lcssa = phi ptr [ %.044.lcssa, %.preheader51 ], [ %.044.lcssa, %.preheader50.lr.ph.split.split ], [ %.5.lcssa.us, %._crit_edge71.us ], [ %41, %._crit_edge71.us96 ], [ %.4.lcssa, %.preheader48 ]
  %63 = icmp sgt i32 %3, 0
  br i1 %63, label %.preheader.lr.ph, label %._crit_edge116

.preheader.lr.ph:                                 ; preds = %.preheader47
  %64 = getelementptr inbounds nuw i8, ptr %1, i64 44
  %65 = load i32, ptr %64, align 4
  %66 = icmp sgt i32 %65, 0
  br i1 %66, label %.preheader, label %._crit_edge116

.preheader48.loopexit:                            ; preds = %.lr.ph65
  %.pre = load i32, ptr %16, align 8
  br label %.preheader48

.preheader48:                                     ; preds = %.preheader48.loopexit, %.preheader50
  %67 = phi i32 [ %60, %.preheader50 ], [ %.pre, %.preheader48.loopexit ]
  %68 = phi i32 [ %61, %.preheader50 ], [ %75, %.preheader48.loopexit ]
  %.146.lcssa = phi ptr [ %.04573, %.preheader50 ], [ %71, %.preheader48.loopexit ]
  %.4.lcssa = phi ptr [ %.274, %.preheader50 ], [ %73, %.preheader48.loopexit ]
  %69 = add nuw nsw i32 %.04175, 1
  %70 = icmp slt i32 %69, %67
  br i1 %70, label %.preheader50, label %.preheader47, !llvm.loop !128

.lr.ph65:                                         ; preds = %.preheader50, %.lr.ph65
  %.03964 = phi i32 [ %74, %.lr.ph65 ], [ 0, %.preheader50 ]
  %.463 = phi ptr [ %73, %.lr.ph65 ], [ %.274, %.preheader50 ]
  %.14662 = phi ptr [ %71, %.lr.ph65 ], [ %.04573, %.preheader50 ]
  %71 = getelementptr inbounds i8, ptr %.14662, i64 8
  %72 = load i64, ptr %.14662, align 8
  %73 = getelementptr inbounds i8, ptr %.463, i64 8
  store i64 %72, ptr %.463, align 8
  %74 = add nuw nsw i32 %.03964, 1
  %75 = load i32, ptr %20, align 4
  %76 = icmp slt i32 %74, %75
  br i1 %76, label %.lr.ph65, label %.preheader48.loopexit, !llvm.loop !124

.preheader:                                       ; preds = %.preheader.lr.ph, %._crit_edge112
  %77 = phi i32 [ %83, %._crit_edge112 ], [ %65, %.preheader.lr.ph ]
  %.037115 = phi i32 [ %84, %._crit_edge112 ], [ 0, %.preheader.lr.ph ]
  %.6114 = phi ptr [ %.7.lcssa, %._crit_edge112 ], [ %.2.lcssa, %.preheader.lr.ph ]
  %78 = icmp sgt i32 %77, 0
  br i1 %78, label %.lr.ph111, label %._crit_edge112

.lr.ph111:                                        ; preds = %.preheader, %.lr.ph111
  %.0110 = phi i32 [ %80, %.lr.ph111 ], [ 0, %.preheader ]
  %.7109 = phi ptr [ %79, %.lr.ph111 ], [ %.6114, %.preheader ]
  %79 = getelementptr inbounds i8, ptr %.7109, i64 8
  store i64 %6, ptr %.7109, align 8
  %80 = add nuw nsw i32 %.0110, 1
  %81 = load i32, ptr %64, align 4
  %82 = icmp slt i32 %80, %81
  br i1 %82, label %.lr.ph111, label %._crit_edge112, !llvm.loop !129

._crit_edge112:                                   ; preds = %.lr.ph111, %.preheader
  %83 = phi i32 [ %77, %.preheader ], [ %81, %.lr.ph111 ]
  %.7.lcssa = phi ptr [ %.6114, %.preheader ], [ %79, %.lr.ph111 ]
  %84 = add nuw nsw i32 %.037115, 1
  %exitcond135.not = icmp eq i32 %84, %3
  br i1 %exitcond135.not, label %._crit_edge116, label %.preheader, !llvm.loop !130

._crit_edge116:                                   ; preds = %._crit_edge112, %.preheader.lr.ph, %.preheader47
  ret void
}